target datalayout = "e-m:e-p270:32:32-p271:32:32-p272:64:64-i64:64-i128:128-f80:128-n8:16:32:64-S128"
target triple = "x86_64-unknown-linux-gnu"

%class.aiQuaterniont = type { float, float, float, float }

; Function Attrs: mustprogress nounwind uwtable
define linkonce_odr noundef float @_ZSt3cosf(float noundef %__x) #0 comdat {
entry:
  %__x.addr = alloca float, align 4
  store float %__x, ptr %__x.addr, align 4
  %0 = load float, ptr %__x.addr, align 4
  %call = call float @cosf(float noundef %0) #3
  ret float %call
}

; Function Attrs: mustprogress nounwind uwtable
define linkonce_odr noundef float @_ZSt3sinf(float noundef %__x) #0 comdat {
entry:
  %__x.addr = alloca float, align 4
  store float %__x, ptr %__x.addr, align 4
  %0 = load float, ptr %__x.addr, align 4
  %call = call float @sinf(float noundef %0) #3
  ret float %call
}

; Function Attrs: mustprogress nounwind uwtable
define linkonce_odr hidden void @_ZN13aiQuaterniontIfEC2Efff(ptr noundef nonnull align 4 dereferenceable(16) %this, float noundef %fPitch, float noundef %fYaw, float noundef %fRoll) unnamed_addr #0 comdat align 2 {
entry:
  %this.addr = alloca ptr, align 8
  %fPitch.addr = alloca float, align 4
  %fYaw.addr = alloca float, align 4
  %fRoll.addr = alloca float, align 4
  %fSinPitch = alloca float, align 4
  %fCosPitch = alloca float, align 4
  %fSinYaw = alloca float, align 4
  %fCosYaw = alloca float, align 4
  %fSinRoll = alloca float, align 4
  %fCosRoll = alloca float, align 4
  %fCosPitchCosYaw = alloca float, align 4
  %fSinPitchSinYaw = alloca float, align 4
  store ptr %this, ptr %this.addr, align 8
  store float %fPitch, ptr %fPitch.addr, align 4
  store float %fYaw, ptr %fYaw.addr, align 4
  store float %fRoll, ptr %fRoll.addr, align 4
  %this1 = load ptr, ptr %this.addr, align 8
  %0 = load float, ptr %fPitch.addr, align 4
  %mul = fmul float %0, 5.000000e-01
  %call = call noundef float @_ZSt3sinf(float noundef %mul)
  store float %call, ptr %fSinPitch, align 4
  %1 = load float, ptr %fPitch.addr, align 4
  %mul2 = fmul float %1, 5.000000e-01
  %call3 = call noundef float @_ZSt3cosf(float noundef %mul2)
  store float %call3, ptr %fCosPitch, align 4
  %2 = load float, ptr %fYaw.addr, align 4
  %mul4 = fmul float %2, 5.000000e-01
  %call5 = call noundef float @_ZSt3sinf(float noundef %mul4)
  store float %call5, ptr %fSinYaw, align 4
  %3 = load float, ptr %fYaw.addr, align 4
  %mul6 = fmul float %3, 5.000000e-01
  %call7 = call noundef float @_ZSt3cosf(float noundef %mul6)
  store float %call7, ptr %fCosYaw, align 4
  %4 = load float, ptr %fRoll.addr, align 4
  %mul8 = fmul float %4, 5.000000e-01
  %call9 = call noundef float @_ZSt3sinf(float noundef %mul8)
  store float %call9, ptr %fSinRoll, align 4
  %5 = load float, ptr %fRoll.addr, align 4
  %mul10 = fmul float %5, 5.000000e-01
  %call11 = call noundef float @_ZSt3cosf(float noundef %mul10)
  store float %call11, ptr %fCosRoll, align 4
  %6 = load float, ptr %fCosPitch, align 4
  %7 = load float, ptr %fCosYaw, align 4
  %mul12 = fmul float %6, %7
  store float %mul12, ptr %fCosPitchCosYaw, align 4
  %8 = load float, ptr %fSinPitch, align 4
  %9 = load float, ptr %fSinYaw, align 4
  %mul13 = fmul float %8, %9
  store float %mul13, ptr %fSinPitchSinYaw, align 4
  %10 = load float, ptr %fSinRoll, align 4
  %11 = load float, ptr %fCosPitchCosYaw, align 4
  %12 = load float, ptr %fCosRoll, align 4
  %13 = load float, ptr %fSinPitchSinYaw, align 4
  %mul15 = fmul float %12, %13
  %neg = fneg float %mul15
  %14 = call float @llvm.fmuladd.f32(float %10, float %11, float %neg)
  %x = getelementptr inbounds %class.aiQuaterniont, ptr %this1, i32 0, i32 1
  store float %14, ptr %x, align 4
  %15 = load float, ptr %fCosRoll, align 4
  %16 = load float, ptr %fSinPitch, align 4
  %mul16 = fmul float %15, %16
  %17 = load float, ptr %fCosYaw, align 4
  %18 = load float, ptr %fSinRoll, align 4
  %19 = load float, ptr %fCosPitch, align 4
  %mul18 = fmul float %18, %19
  %20 = load float, ptr %fSinYaw, align 4
  %mul19 = fmul float %mul18, %20
  %21 = call float @llvm.fmuladd.f32(float %mul16, float %17, float %mul19)
  %y = getelementptr inbounds %class.aiQuaterniont, ptr %this1, i32 0, i32 2
  store float %21, ptr %y, align 4
  %22 = load float, ptr %fCosRoll, align 4
  %23 = load float, ptr %fCosPitch, align 4
  %mul20 = fmul float %22, %23
  %24 = load float, ptr %fSinYaw, align 4
  %25 = load float, ptr %fSinRoll, align 4
  %26 = load float, ptr %fSinPitch, align 4
  %mul22 = fmul float %25, %26
  %27 = load float, ptr %fCosYaw, align 4
  %mul23 = fmul float %mul22, %27
  %neg24 = fneg float %mul23
  %28 = call float @llvm.fmuladd.f32(float %mul20, float %24, float %neg24)
  %z = getelementptr inbounds %class.aiQuaterniont, ptr %this1, i32 0, i32 3
  store float %28, ptr %z, align 4
  %29 = load float, ptr %fCosRoll, align 4
  %30 = load float, ptr %fCosPitchCosYaw, align 4
  %31 = load float, ptr %fSinRoll, align 4
  %32 = load float, ptr %fSinPitchSinYaw, align 4
  %mul26 = fmul float %31, %32
  %33 = call float @llvm.fmuladd.f32(float %29, float %30, float %mul26)
  %w = getelementptr inbounds %class.aiQuaterniont, ptr %this1, i32 0, i32 0
  store float %33, ptr %w, align 4
  ret void
}

; Function Attrs: mustprogress uwtable
define void @aiQuaternionFromEulerAngles(ptr noundef %q, float noundef %x, float noundef %y, float noundef %z) #5 {
entry:
  %q.addr = alloca ptr, align 8
  %x.addr = alloca float, align 4
  %y.addr = alloca float, align 4
  %z.addr = alloca float, align 4
  %ref.tmp = alloca %class.aiQuaterniont, align 4
  store ptr %q, ptr %q.addr, align 8
  store float %x, ptr %x.addr, align 4
  store float %y, ptr %y.addr, align 4
  store float %z, ptr %z.addr, align 4
  %0 = load float, ptr %x.addr, align 4
  %1 = load float, ptr %y.addr, align 4
  %2 = load float, ptr %z.addr, align 4
  call void @_ZN13aiQuaterniontIfEC2Efff(ptr noundef nonnull align 4 dereferenceable(16) %ref.tmp, float noundef %0, float noundef %1, float noundef %2)
  %3 = load ptr, ptr %q.addr, align 8
  call void @llvm.memcpy.p0.p0.i64(ptr align 4 %3, ptr align 4 %ref.tmp, i64 16, i1 false)
  ret void
}