; Function Attrs: mustprogress nofree nounwind willreturn memory(write) uwtable
define void @aiQuaternionFromEulerAngles(ptr nocapture noundef writeonly %q, float noundef %x, float noundef %y, float noundef %z) local_unnamed_addr #16 {
entry:
  %mul.i = fmul float %x, 5.000000e-01
  %call.i.i = tail call noundef float @sinf(float noundef %mul.i) #44
  %call.i20.i = tail call noundef float @cosf(float noundef %mul.i) #44
  %mul4.i = fmul float %y, 5.000000e-01
  %call.i21.i = tail call noundef float @sinf(float noundef %mul4.i) #44
  %call.i22.i = tail call noundef float @cosf(float noundef %mul4.i) #44
  %mul8.i = fmul float %z, 5.000000e-01
  %call.i23.i = tail call noundef float @sinf(float noundef %mul8.i) #44
  %call.i24.i = tail call noundef float @cosf(float noundef %mul8.i) #44
  %mul12.i = fmul float %call.i20.i, %call.i22.i
  %0 = fneg float %call.i24.i
  %1 = insertelement <2 x float> poison, float %call.i.i, i64 0
  %2 = insertelement <2 x float> %1, float %call.i20.i, i64 1
  %3 = insertelement <2 x float> poison, float %call.i24.i, i64 0
  %4 = shufflevector <2 x float> %3, <2 x float> poison, <2 x i32> zeroinitializer
  %5 = fmul <2 x float> %2, %4
  %6 = fneg float %call.i23.i
  %7 = insertelement <4 x float> poison, float %call.i.i, i64 0
  %8 = insertelement <4 x float> %7, float %call.i20.i, i64 1
  %9 = shufflevector <4 x float> %8, <4 x float> poison, <4 x i32> <i32 0, i32 0, i32 1, i32 0>
  %10 = insertelement <4 x float> poison, float %call.i21.i, i64 0
  %11 = insertelement <4 x float> %10, float %call.i23.i, i64 2
  %12 = insertelement <4 x float> %11, float %6, i64 3
  %13 = shufflevector <4 x float> %12, <4 x float> poison, <4 x i32> <i32 0, i32 0, i32 2, i32 3>
  %14 = fmul <4 x float> %9, %13
  %15 = shufflevector <4 x float> %11, <4 x float> poison, <4 x i32> <i32 2, i32 poison, i32 0, i32 poison>
  %16 = insertelement <4 x float> %15, float %0, i64 1
  %17 = insertelement <4 x float> %16, float %call.i22.i, i64 3
  %18 = fmul <4 x float> %14, %17
  %19 = insertelement <4 x float> poison, float %call.i24.i, i64 0
  %20 = insertelement <4 x float> %19, float %call.i23.i, i64 1
  %21 = shufflevector <2 x float> %5, <2 x float> poison, <4 x i32> <i32 0, i32 1, i32 poison, i32 poison>
  %22 = shufflevector <4 x float> %20, <4 x float> %21, <4 x i32> <i32 0, i32 1, i32 4, i32 5>
  %23 = shufflevector <4 x float> %17, <4 x float> poison, <4 x i32> <i32 poison, i32 poison, i32 3, i32 2>
  %24 = insertelement <4 x float> %23, float %mul12.i, i64 0
  %25 = shufflevector <4 x float> %24, <4 x float> poison, <4 x i32> <i32 0, i32 0, i32 2, i32 3>
  %26 = tail call <4 x float> @llvm.fmuladd.v4f32(<4 x float> %22, <4 x float> %25, <4 x float> %18)
  store <4 x float> %26, ptr %q, align 4
  ret void
}